; Function Attrs: mustprogress nofree norecurse nosync nounwind willreturn memory(read, inaccessiblemem: none) uwtable
define dso_local noundef zeroext range(i8 0, 32) i8 @_ZN5clang17computeDependenceEPNS_11CXXThisExprE(ptr noundef readonly captures(none) %0) local_unnamed_addr #0 {
  %2 = getelementptr inbounds nuw i8, ptr %0, i64 8
  %.sroa.0.0.copyload.i = load i64, ptr %2, align 8
  %3 = and i64 %.sroa.0.0.copyload.i, -16
  %4 = inttoptr i64 %3 to ptr
  %5 = load ptr, ptr %4, align 16
  %6 = getelementptr inbounds nuw i8, ptr %5, i64 17
  %7 = load i16, ptr %6, align 1
  %8 = trunc i16 %7 to i8
  %9 = and i8 %8, 4
  %.not.i6.i.i = icmp eq i8 %9, 0
  %10 = select i1 %.not.i6.i.i, i8 0, i8 12
  %11 = and i8 %8, 18
  %12 = or disjoint i8 %10, %11
  %13 = load i32, ptr %0, align 8
  %14 = lshr i32 %13, 17
  %15 = trunc i32 %14 to i8
  %16 = and i8 %15, 4
  %spec.select = or i8 %12, %16
  ret i8 %spec.select
}